target datalayout = "e-m:e-p270:32:32-p271:32:32-p272:64:64-i64:64-i128:128-f80:128-n8:16:32:64-S128"
target triple = "x86_64-pc-linux-gnu"

; Function Attrs: mustprogress nounwind uwtable
define linkonce_odr void @_ZSt9__fill_a1IPN4llvm3ISD8CondCodeES2_EN9__gnu_cxx11__enable_ifIXntsr11__is_scalarIT0_EE7__valueEvE6__typeET_S9_RKS6_(ptr noundef %0, ptr noundef %1, ptr noundef nonnull align 4 dereferenceable(4) %2) #1 comdat {
  %4 = alloca ptr, align 8
  %5 = alloca ptr, align 8
  %6 = alloca ptr, align 8
  store ptr %0, ptr %4, align 8
  store ptr %1, ptr %5, align 8
  store ptr %2, ptr %6, align 8
  br label %7

7:                                                ; preds = %15, %3
  %8 = load ptr, ptr %4, align 8
  %9 = load ptr, ptr %5, align 8
  %10 = icmp ne ptr %8, %9
  br i1 %10, label %11, label %18

11:                                               ; preds = %7
  %12 = load ptr, ptr %6, align 8
  %13 = load i32, ptr %12, align 4
  %14 = load ptr, ptr %4, align 8
  store i32 %13, ptr %14, align 4
  br label %15

15:                                               ; preds = %11
  %16 = load ptr, ptr %4, align 8
  %17 = getelementptr inbounds i32, ptr %16, i32 1
  store ptr %17, ptr %4, align 8
  br label %7, !llvm.loop !39

18:                                               ; preds = %7
  ret void
}

; Function Attrs: mustprogress nounwind uwtable
define linkonce_odr void @_ZSt8__fill_aIPN4llvm3ISD8CondCodeES2_EvT_S4_RKT0_(ptr noundef %0, ptr noundef %1, ptr noundef nonnull align 4 dereferenceable(4) %2) #1 comdat {
  %4 = alloca ptr, align 8
  %5 = alloca ptr, align 8
  %6 = alloca ptr, align 8
  store ptr %0, ptr %4, align 8
  store ptr %1, ptr %5, align 8
  store ptr %2, ptr %6, align 8
  %7 = load ptr, ptr %4, align 8
  %8 = load ptr, ptr %5, align 8
  %9 = load ptr, ptr %6, align 8
  call void @_ZSt9__fill_a1IPN4llvm3ISD8CondCodeES2_EN9__gnu_cxx11__enable_ifIXntsr11__is_scalarIT0_EE7__valueEvE6__typeET_S9_RKS6_(ptr noundef %7, ptr noundef %8, ptr noundef nonnull align 4 dereferenceable(4) %9)
  ret void
}

; Function Attrs: mustprogress nounwind uwtable
define linkonce_odr void @_ZSt4fillIPN4llvm3ISD8CondCodeES2_EvT_S4_RKT0_(ptr noundef %0, ptr noundef %1, ptr noundef nonnull align 4 dereferenceable(4) %2) #1 comdat {
  %4 = alloca ptr, align 8
  %5 = alloca ptr, align 8
  %6 = alloca ptr, align 8
  store ptr %0, ptr %4, align 8
  store ptr %1, ptr %5, align 8
  store ptr %2, ptr %6, align 8
  %7 = load ptr, ptr %4, align 8
  %8 = load ptr, ptr %5, align 8
  %9 = load ptr, ptr %6, align 8
  call void @_ZSt8__fill_aIPN4llvm3ISD8CondCodeES2_EvT_S4_RKT0_(ptr noundef %7, ptr noundef %8, ptr noundef nonnull align 4 dereferenceable(4) %9)
  ret void
}

; Function Attrs: mustprogress nounwind uwtable
define dso_local void @_ZN4llvm5RTLIB17initCmpLibcallCCsEPNS_3ISD8CondCodeE(ptr noundef %0) #1 {
  %2 = alloca ptr, align 8
  %3 = alloca i32, align 4
  store ptr %0, ptr %2, align 8
  %4 = load ptr, ptr %2, align 8
  %5 = load ptr, ptr %2, align 8
  %6 = getelementptr inbounds i32, ptr %5, i64 700
  store i32 24, ptr %3, align 4
  call void @_ZSt4fillIPN4llvm3ISD8CondCodeES2_EvT_S4_RKT0_(ptr noundef %4, ptr noundef %6, ptr noundef nonnull align 4 dereferenceable(4) %3)
  %7 = load ptr, ptr %2, align 8
  %8 = getelementptr inbounds i32, ptr %7, i64 411
  store i32 17, ptr %8, align 4
  %9 = load ptr, ptr %2, align 8
  %10 = getelementptr inbounds i32, ptr %9, i64 412
  store i32 17, ptr %10, align 4
  %11 = load ptr, ptr %2, align 8
  %12 = getelementptr inbounds i32, ptr %11, i64 413
  store i32 17, ptr %12, align 4
  %13 = load ptr, ptr %2, align 8
  %14 = getelementptr inbounds i32, ptr %13, i64 414
  store i32 17, ptr %14, align 4
  %15 = load ptr, ptr %2, align 8
  %16 = getelementptr inbounds i32, ptr %15, i64 415
  store i32 22, ptr %16, align 4
  %17 = load ptr, ptr %2, align 8
  %18 = getelementptr inbounds i32, ptr %17, i64 416
  store i32 22, ptr %18, align 4
  %19 = load ptr, ptr %2, align 8
  %20 = getelementptr inbounds i32, ptr %19, i64 417
  store i32 22, ptr %20, align 4
  %21 = load ptr, ptr %2, align 8
  %22 = getelementptr inbounds i32, ptr %21, i64 418
  store i32 22, ptr %22, align 4
  %23 = load ptr, ptr %2, align 8
  %24 = getelementptr inbounds i32, ptr %23, i64 419
  store i32 19, ptr %24, align 4
  %25 = load ptr, ptr %2, align 8
  %26 = getelementptr inbounds i32, ptr %25, i64 420
  store i32 19, ptr %26, align 4
  %27 = load ptr, ptr %2, align 8
  %28 = getelementptr inbounds i32, ptr %27, i64 421
  store i32 19, ptr %28, align 4
  %29 = load ptr, ptr %2, align 8
  %30 = getelementptr inbounds i32, ptr %29, i64 422
  store i32 19, ptr %30, align 4
  %31 = load ptr, ptr %2, align 8
  %32 = getelementptr inbounds i32, ptr %31, i64 423
  store i32 20, ptr %32, align 4
  %33 = load ptr, ptr %2, align 8
  %34 = getelementptr inbounds i32, ptr %33, i64 424
  store i32 20, ptr %34, align 4
  %35 = load ptr, ptr %2, align 8
  %36 = getelementptr inbounds i32, ptr %35, i64 425
  store i32 20, ptr %36, align 4
  %37 = load ptr, ptr %2, align 8
  %38 = getelementptr inbounds i32, ptr %37, i64 426
  store i32 20, ptr %38, align 4
  %39 = load ptr, ptr %2, align 8
  %40 = getelementptr inbounds i32, ptr %39, i64 427
  store i32 21, ptr %40, align 4
  %41 = load ptr, ptr %2, align 8
  %42 = getelementptr inbounds i32, ptr %41, i64 428
  store i32 21, ptr %42, align 4
  %43 = load ptr, ptr %2, align 8
  %44 = getelementptr inbounds i32, ptr %43, i64 429
  store i32 21, ptr %44, align 4
  %45 = load ptr, ptr %2, align 8
  %46 = getelementptr inbounds i32, ptr %45, i64 430
  store i32 21, ptr %46, align 4
  %47 = load ptr, ptr %2, align 8
  %48 = getelementptr inbounds i32, ptr %47, i64 431
  store i32 18, ptr %48, align 4
  %49 = load ptr, ptr %2, align 8
  %50 = getelementptr inbounds i32, ptr %49, i64 432
  store i32 18, ptr %50, align 4
  %51 = load ptr, ptr %2, align 8
  %52 = getelementptr inbounds i32, ptr %51, i64 433
  store i32 18, ptr %52, align 4
  %53 = load ptr, ptr %2, align 8
  %54 = getelementptr inbounds i32, ptr %53, i64 434
  store i32 18, ptr %54, align 4
  %55 = load ptr, ptr %2, align 8
  %56 = getelementptr inbounds i32, ptr %55, i64 435
  store i32 22, ptr %56, align 4
  %57 = load ptr, ptr %2, align 8
  %58 = getelementptr inbounds i32, ptr %57, i64 436
  store i32 22, ptr %58, align 4
  %59 = load ptr, ptr %2, align 8
  %60 = getelementptr inbounds i32, ptr %59, i64 437
  store i32 22, ptr %60, align 4
  %61 = load ptr, ptr %2, align 8
  %62 = getelementptr inbounds i32, ptr %61, i64 438
  store i32 22, ptr %62, align 4
  ret void
}