; Function Attrs: mustprogress nofree norecurse nosync nounwind memory(argmem: write) uwtable
define dso_local void @_ZN4llvm5RTLIB17initCmpLibcallCCsEPNS_3ISD8CondCodeE(ptr nocapture noundef writeonly %0) local_unnamed_addr #5 {
  br label %.lr.ph.i.i.i

.lr.ph.i.i.i:                                     ; preds = %.lr.ph.i.i.i, %1
  %.06.i.i.i.idx = phi i64 [ %.06.i.i.i.add, %.lr.ph.i.i.i ], [ 0, %1 ]
  %.06.i.i.i.ptr = getelementptr inbounds i8, ptr %0, i64 %.06.i.i.i.idx
  store i32 24, ptr %.06.i.i.i.ptr, align 4
  %.06.i.i.i.add = add nuw nsw i64 %.06.i.i.i.idx, 4
  %.not.i.i.i = icmp eq i64 %.06.i.i.i.add, 2800
  br i1 %.not.i.i.i, label %_ZSt4fillIPN4llvm3ISD8CondCodeES2_EvT_S4_RKT0_.exit, label %.lr.ph.i.i.i, !llvm.loop !4

_ZSt4fillIPN4llvm3ISD8CondCodeES2_EvT_S4_RKT0_.exit: ; preds = %.lr.ph.i.i.i
  %2 = getelementptr inbounds i8, ptr %0, i64 1644
  store i32 17, ptr %2, align 4
  %3 = getelementptr inbounds i8, ptr %0, i64 1648
  store i32 17, ptr %3, align 4
  %4 = getelementptr inbounds i8, ptr %0, i64 1652
  store i32 17, ptr %4, align 4
  %5 = getelementptr inbounds i8, ptr %0, i64 1656
  store i32 17, ptr %5, align 4
  %6 = getelementptr inbounds i8, ptr %0, i64 1660
  store i32 22, ptr %6, align 4
  %7 = getelementptr inbounds i8, ptr %0, i64 1664
  store i32 22, ptr %7, align 4
  %8 = getelementptr inbounds i8, ptr %0, i64 1668
  store i32 22, ptr %8, align 4
  %9 = getelementptr inbounds i8, ptr %0, i64 1672
  store i32 22, ptr %9, align 4
  %10 = getelementptr inbounds i8, ptr %0, i64 1676
  store i32 19, ptr %10, align 4
  %11 = getelementptr inbounds i8, ptr %0, i64 1680
  store i32 19, ptr %11, align 4
  %12 = getelementptr inbounds i8, ptr %0, i64 1684
  store i32 19, ptr %12, align 4
  %13 = getelementptr inbounds i8, ptr %0, i64 1688
  store i32 19, ptr %13, align 4
  %14 = getelementptr inbounds i8, ptr %0, i64 1692
  store i32 20, ptr %14, align 4
  %15 = getelementptr inbounds i8, ptr %0, i64 1696
  store i32 20, ptr %15, align 4
  %16 = getelementptr inbounds i8, ptr %0, i64 1700
  store i32 20, ptr %16, align 4
  %17 = getelementptr inbounds i8, ptr %0, i64 1704
  store i32 20, ptr %17, align 4
  %18 = getelementptr inbounds i8, ptr %0, i64 1708
  store i32 21, ptr %18, align 4
  %19 = getelementptr inbounds i8, ptr %0, i64 1712
  store i32 21, ptr %19, align 4
  %20 = getelementptr inbounds i8, ptr %0, i64 1716
  store i32 21, ptr %20, align 4
  %21 = getelementptr inbounds i8, ptr %0, i64 1720
  store i32 21, ptr %21, align 4
  %22 = getelementptr inbounds i8, ptr %0, i64 1724
  store i32 18, ptr %22, align 4
  %23 = getelementptr inbounds i8, ptr %0, i64 1728
  store i32 18, ptr %23, align 4
  %24 = getelementptr inbounds i8, ptr %0, i64 1732
  store i32 18, ptr %24, align 4
  %25 = getelementptr inbounds i8, ptr %0, i64 1736
  store i32 18, ptr %25, align 4
  %26 = getelementptr inbounds i8, ptr %0, i64 1740
  store i32 22, ptr %26, align 4
  %27 = getelementptr inbounds i8, ptr %0, i64 1744
  store i32 22, ptr %27, align 4
  %28 = getelementptr inbounds i8, ptr %0, i64 1748
  store i32 22, ptr %28, align 4
  %29 = getelementptr inbounds i8, ptr %0, i64 1752
  store i32 22, ptr %29, align 4
  ret void
}